; ModuleID = '64/2756.c'
source_filename = "64/2756.c"
target datalayout = "e-m:e-p270:32:32-p271:32:32-p272:64:64-i64:64-f80:128-n8:16:32:64-S128"
target triple = "x86_64-pc-linux-gnu"

@.str = private unnamed_addr constant [3 x i8] c"%d\00", align 1
@.str.1 = private unnamed_addr constant [7 x i8] c"%d%d%d\00", align 1
@.str.2 = private unnamed_addr constant [29 x i8] c"(%d,%d,%d)-(%d,%d,%d)=%.2lf\0A\00", align 1

; Function Attrs: noinline nounwind uwtable
define dso_local i32 @main() #0 {
  %1 = alloca i32, align 4
  %2 = alloca i32, align 4
  %3 = alloca i32, align 4
  %4 = alloca i32, align 4
  %5 = alloca i32, align 4
  %6 = alloca i32, align 4
  %7 = alloca i32, align 4
  %8 = alloca i32, align 4
  %9 = alloca double, align 8
  %10 = alloca i8*, align 8
  %11 = alloca i64, align 8
  %12 = alloca i64, align 8
  %13 = alloca i64, align 8
  %14 = alloca i64, align 8
  %15 = alloca i64, align 8
  store i32 0, i32* %1, align 4
  %16 = call i32 (i8*, ...) @__isoc99_scanf(i8* getelementptr inbounds ([3 x i8], [3 x i8]* @.str, i64 0, i64 0), i32* %2)
  %17 = load i32, i32* %2, align 4
  %18 = zext i32 %17 to i64
  %19 = load i32, i32* %2, align 4
  %20 = zext i32 %19 to i64
  %21 = call i8* @llvm.stacksave()
  store i8* %21, i8** %10, align 8
  %22 = mul nuw i64 %18, %20
  %23 = alloca double, i64 %22, align 16
  store i64 %18, i64* %11, align 8
  store i64 %20, i64* %12, align 8
  %24 = load i32, i32* %2, align 4
  %25 = zext i32 %24 to i64
  %26 = alloca i32, i64 %25, align 16
  store i64 %25, i64* %13, align 8
  %27 = load i32, i32* %2, align 4
  %28 = zext i32 %27 to i64
  %29 = alloca i32, i64 %28, align 16
  store i64 %28, i64* %14, align 8
  %30 = load i32, i32* %2, align 4
  %31 = zext i32 %30 to i64
  %32 = alloca i32, i64 %31, align 16
  store i64 %31, i64* %15, align 8
  store i32 0, i32* %6, align 4
  br label %33

33:                                               ; preds = %48, %0
  %34 = load i32, i32* %6, align 4
  %35 = load i32, i32* %2, align 4
  %36 = icmp slt i32 %34, %35
  br i1 %36, label %37, label %51

37:                                               ; preds = %33
  %38 = load i32, i32* %6, align 4
  %39 = sext i32 %38 to i64
  %40 = getelementptr inbounds i32, i32* %26, i64 %39
  %41 = load i32, i32* %6, align 4
  %42 = sext i32 %41 to i64
  %43 = getelementptr inbounds i32, i32* %29, i64 %42
  %44 = load i32, i32* %6, align 4
  %45 = sext i32 %44 to i64
  %46 = getelementptr inbounds i32, i32* %32, i64 %45
  %47 = call i32 (i8*, ...) @__isoc99_scanf(i8* getelementptr inbounds ([7 x i8], [7 x i8]* @.str.1, i64 0, i64 0), i32* %40, i32* %43, i32* %46)
  br label %48

48:                                               ; preds = %37
  %49 = load i32, i32* %6, align 4
  %50 = add nsw i32 %49, 1
  store i32 %50, i32* %6, align 4
  br label %33

51:                                               ; preds = %33
  store i32 0, i32* %4, align 4
  br label %52

52:                                               ; preds = %136, %51
  %53 = load i32, i32* %4, align 4
  %54 = load i32, i32* %2, align 4
  %55 = icmp slt i32 %53, %54
  br i1 %55, label %56, label %139

56:                                               ; preds = %52
  %57 = load i32, i32* %4, align 4
  %58 = add nsw i32 %57, 1
  store i32 %58, i32* %5, align 4
  br label %59

59:                                               ; preds = %63, %56
  %60 = load i32, i32* %5, align 4
  %61 = load i32, i32* %2, align 4
  %62 = icmp slt i32 %60, %61
  br i1 %62, label %63, label %135

63:                                               ; preds = %59
  %64 = load i32, i32* %4, align 4
  %65 = sext i32 %64 to i64
  %66 = getelementptr inbounds i32, i32* %26, i64 %65
  %67 = load i32, i32* %66, align 4
  %68 = load i32, i32* %5, align 4
  %69 = sext i32 %68 to i64
  %70 = getelementptr inbounds i32, i32* %26, i64 %69
  %71 = load i32, i32* %70, align 4
  %72 = sub nsw i32 %67, %71
  %73 = load i32, i32* %4, align 4
  %74 = sext i32 %73 to i64
  %75 = getelementptr inbounds i32, i32* %26, i64 %74
  %76 = load i32, i32* %75, align 4
  %77 = load i32, i32* %5, align 4
  %78 = sext i32 %77 to i64
  %79 = getelementptr inbounds i32, i32* %26, i64 %78
  %80 = load i32, i32* %79, align 4
  %81 = sub nsw i32 %76, %80
  %82 = mul nsw i32 %72, %81
  %83 = load i32, i32* %4, align 4
  %84 = sext i32 %83 to i64
  %85 = getelementptr inbounds i32, i32* %29, i64 %84
  %86 = load i32, i32* %85, align 4
  %87 = load i32, i32* %5, align 4
  %88 = sext i32 %87 to i64
  %89 = getelementptr inbounds i32, i32* %29, i64 %88
  %90 = load i32, i32* %89, align 4
  %91 = sub nsw i32 %86, %90
  %92 = load i32, i32* %4, align 4
  %93 = sext i32 %92 to i64
  %94 = getelementptr inbounds i32, i32* %29, i64 %93
  %95 = load i32, i32* %94, align 4
  %96 = load i32, i32* %5, align 4
  %97 = sext i32 %96 to i64
  %98 = getelementptr inbounds i32, i32* %29, i64 %97
  %99 = load i32, i32* %98, align 4
  %100 = sub nsw i32 %95, %99
  %101 = mul nsw i32 %91, %100
  %102 = add nsw i32 %82, %101
  %103 = load i32, i32* %4, align 4
  %104 = sext i32 %103 to i64
  %105 = getelementptr inbounds i32, i32* %32, i64 %104
  %106 = load i32, i32* %105, align 4
  %107 = load i32, i32* %5, align 4
  %108 = sext i32 %107 to i64
  %109 = getelementptr inbounds i32, i32* %32, i64 %108
  %110 = load i32, i32* %109, align 4
  %111 = sub nsw i32 %106, %110
  %112 = load i32, i32* %4, align 4
  %113 = sext i32 %112 to i64
  %114 = getelementptr inbounds i32, i32* %32, i64 %113
  %115 = load i32, i32* %114, align 4
  %116 = load i32, i32* %5, align 4
  %117 = sext i32 %116 to i64
  %118 = getelementptr inbounds i32, i32* %32, i64 %117
  %119 = load i32, i32* %118, align 4
  %120 = sub nsw i32 %115, %119
  %121 = mul nsw i32 %111, %120
  %122 = add nsw i32 %102, %121
  store i32 %122, i32* %3, align 4
  %123 = load i32, i32* %3, align 4
  %124 = sitofp i32 %123 to double
  %125 = call double @sqrt(double %124) #2
  %126 = load i32, i32* %4, align 4
  %127 = sext i32 %126 to i64
  %128 = mul nsw i64 %127, %20
  %129 = getelementptr inbounds double, double* %23, i64 %128
  %130 = load i32, i32* %5, align 4
  %131 = sext i32 %130 to i64
  %132 = getelementptr inbounds double, double* %129, i64 %131
  store double %125, double* %132, align 8
  %133 = load i32, i32* %5, align 4
  %134 = add nsw i32 %133, 1
  store i32 %134, i32* %5, align 4
  br label %59

135:                                              ; preds = %59
  br label %136

136:                                              ; preds = %135
  %137 = load i32, i32* %4, align 4
  %138 = add nsw i32 %137, 1
  store i32 %138, i32* %4, align 4
  br label %52

139:                                              ; preds = %52
  store double 0.000000e+00, double* %9, align 8
  store i32 0, i32* %6, align 4
  br label %140

140:                                              ; preds = %223, %139
  %141 = load i32, i32* %6, align 4
  %142 = icmp ne i32 %141, -1
  br i1 %142, label %143, label %226

143:                                              ; preds = %140
  store i32 0, i32* %4, align 4
  br label %144

144:                                              ; preds = %181, %143
  %145 = load i32, i32* %4, align 4
  %146 = load i32, i32* %2, align 4
  %147 = icmp slt i32 %145, %146
  br i1 %147, label %148, label %184

148:                                              ; preds = %144
  %149 = load i32, i32* %4, align 4
  %150 = add nsw i32 %149, 1
  store i32 %150, i32* %5, align 4
  br label %151

151:                                              ; preds = %177, %148
  %152 = load i32, i32* %5, align 4
  %153 = load i32, i32* %2, align 4
  %154 = icmp slt i32 %152, %153
  br i1 %154, label %155, label %180

155:                                              ; preds = %151
  %156 = load double, double* %9, align 8
  %157 = load i32, i32* %4, align 4
  %158 = sext i32 %157 to i64
  %159 = mul nsw i64 %158, %20
  %160 = getelementptr inbounds double, double* %23, i64 %159
  %161 = load i32, i32* %5, align 4
  %162 = sext i32 %161 to i64
  %163 = getelementptr inbounds double, double* %160, i64 %162
  %164 = load double, double* %163, align 8
  %165 = fcmp olt double %156, %164
  br i1 %165, label %166, label %177

166:                                              ; preds = %155
  %167 = load i32, i32* %4, align 4
  %168 = sext i32 %167 to i64
  %169 = mul nsw i64 %168, %20
  %170 = getelementptr inbounds double, double* %23, i64 %169
  %171 = load i32, i32* %5, align 4
  %172 = sext i32 %171 to i64
  %173 = getelementptr inbounds double, double* %170, i64 %172
  %174 = load double, double* %173, align 8
  store double %174, double* %9, align 8
  %175 = load i32, i32* %4, align 4
  store i32 %175, i32* %7, align 4
  %176 = load i32, i32* %5, align 4
  store i32 %176, i32* %8, align 4
  br label %177

177:                                              ; preds = %166, %155
  %178 = load i32, i32* %5, align 4
  %179 = add nsw i32 %178, 1
  store i32 %179, i32* %5, align 4
  br label %151

180:                                              ; preds = %151
  br label %181

181:                                              ; preds = %180
  %182 = load i32, i32* %4, align 4
  %183 = add nsw i32 %182, 1
  store i32 %183, i32* %4, align 4
  br label %144

184:                                              ; preds = %144
  %185 = load double, double* %9, align 8
  %186 = fcmp oeq double %185, 0.000000e+00
  br i1 %186, label %187, label %188

187:                                              ; preds = %184
  br label %226

188:                                              ; preds = %184
  %189 = load i32, i32* %7, align 4
  %190 = sext i32 %189 to i64
  %191 = getelementptr inbounds i32, i32* %26, i64 %190
  %192 = load i32, i32* %191, align 4
  %193 = load i32, i32* %7, align 4
  %194 = sext i32 %193 to i64
  %195 = getelementptr inbounds i32, i32* %29, i64 %194
  %196 = load i32, i32* %195, align 4
  %197 = load i32, i32* %7, align 4
  %198 = sext i32 %197 to i64
  %199 = getelementptr inbounds i32, i32* %32, i64 %198
  %200 = load i32, i32* %199, align 4
  %201 = load i32, i32* %8, align 4
  %202 = sext i32 %201 to i64
  %203 = getelementptr inbounds i32, i32* %26, i64 %202
  %204 = load i32, i32* %203, align 4
  %205 = load i32, i32* %8, align 4
  %206 = sext i32 %205 to i64
  %207 = getelementptr inbounds i32, i32* %29, i64 %206
  %208 = load i32, i32* %207, align 4
  %209 = load i32, i32* %8, align 4
  %210 = sext i32 %209 to i64
  %211 = getelementptr inbounds i32, i32* %32, i64 %210
  %212 = load i32, i32* %211, align 4
  %213 = load double, double* %9, align 8
  %214 = call i32 (i8*, ...) @printf(i8* getelementptr inbounds ([29 x i8], [29 x i8]* @.str.2, i64 0, i64 0), i32 %192, i32 %196, i32 %200, i32 %204, i32 %208, i32 %212, double %213)
  %215 = load i32, i32* %7, align 4
  %216 = sext i32 %215 to i64
  %217 = mul nsw i64 %216, %20
  %218 = getelementptr inbounds double, double* %23, i64 %217
  %219 = load i32, i32* %8, align 4
  %220 = sext i32 %219 to i64
  %221 = getelementptr inbounds double, double* %218, i64 %220
  store double 0.000000e+00, double* %221, align 8
  store double 0.000000e+00, double* %9, align 8
  br label %222

222:                                              ; preds = %188
  br label %223

223:                                              ; preds = %222
  %224 = load i32, i32* %6, align 4
  %225 = add nsw i32 %224, 1
  store i32 %225, i32* %6, align 4
  br label %140

226:                                              ; preds = %187, %140
  store i32 0, i32* %1, align 4
  %227 = load i8*, i8** %10, align 8
  call void @llvm.stackrestore(i8* %227)
  %228 = load i32, i32* %1, align 4
  ret i32 %228
}

declare dso_local i32 @__isoc99_scanf(i8*, ...) #1

; Function Attrs: nounwind
declare i8* @llvm.stacksave() #2

; Function Attrs: nounwind
declare dso_local double @sqrt(double) #3

declare dso_local i32 @printf(i8*, ...) #1

; Function Attrs: nounwind
declare void @llvm.stackrestore(i8*) #2


!llvm.module.flags = !{!0}
!llvm.ident = !{!1}

!0 = !{i32 1, !"wchar_size", i32 4}
!1 = !{!"clang version 10.0.0-4ubuntu1 "}
